; Function Attrs: mustprogress uwtable
define void @_ZN32pxrInternal_v0_24__pxrReserved__37UsdUtils_ReadOnlyLocalizationDelegate17ProcessReferencesB5cxx11ERKNS_8TfRefPtrINS_8SdfLayerEEERKNS_9SdfHandleINS_11SdfPrimSpecEEE(ptr dead_on_unwind noalias writable sret(%"class.std::vector") align 8 %0, ptr noundef nonnull align 8 dereferenceable(96) %1, ptr noundef nonnull align 8 dereferenceable(8) %2, ptr noundef nonnull align 8 dereferenceable(8) %3) unnamed_addr #0 align 2 personality ptr @__gxx_personality_v0 {
  %5 = alloca %"struct.pxrInternal_v0_24__pxrReserved__::Tf_DiagnosticHelper", align 8
  %6 = alloca %"class.std::__cxx11::basic_string", align 8
  %7 = alloca %"class.std::vector.100", align 8
  %8 = alloca %"class.pxrInternal_v0_24__pxrReserved__::SdfListEditorProxy.105", align 8
  call void @llvm.lifetime.start.p0(i64 48, ptr nonnull %5)
  call void @llvm.lifetime.start.p0(i64 32, ptr nonnull %6)
  %9 = tail call noundef zeroext i1 @_ZNK32pxrInternal_v0_24__pxrReserved__7SdfSpec9IsDormantEv(ptr noundef nonnull align 8 dereferenceable(8) %3)
  br i1 %9, label %10, label %_ZNK32pxrInternal_v0_24__pxrReserved__9SdfHandleINS_11SdfPrimSpecEEptEv.exit

10:                                               ; preds = %4
  store ptr @.str.15, ptr %5, align 8
  %.sroa.2.0..sroa_idx.i = getelementptr inbounds nuw i8, ptr %5, i64 8
  store ptr @__func__._ZNK32pxrInternal_v0_24__pxrReserved__8TfRefPtrINS_8SdfLayerEEptEv, ptr %.sroa.2.0..sroa_idx.i, align 8
  %.sroa.3.0..sroa_idx.i = getelementptr inbounds nuw i8, ptr %5, i64 16
  store i64 79, ptr %.sroa.3.0..sroa_idx.i, align 8
  %.sroa.4.0..sroa_idx.i = getelementptr inbounds nuw i8, ptr %5, i64 24
  store ptr @__PRETTY_FUNCTION__._ZNK32pxrInternal_v0_24__pxrReserved__9SdfHandleINS_11SdfPrimSpecEEptEv, ptr %.sroa.4.0..sroa_idx.i, align 8
  %.sroa.5.0..sroa_idx.i = getelementptr inbounds nuw i8, ptr %5, i64 32
  store i8 0, ptr %.sroa.5.0..sroa_idx.i, align 8
  %11 = getelementptr inbounds nuw i8, ptr %5, i64 40
  store i32 4, ptr %11, align 8
  call void @_ZN32pxrInternal_v0_24__pxrReserved__16ArchGetDemangledB5cxx11EPKc(ptr dead_on_unwind nonnull writable sret(%"class.std::__cxx11::basic_string") align 8 %6, ptr noundef nonnull @_ZTSN32pxrInternal_v0_24__pxrReserved__11SdfPrimSpecE)
  %12 = call noundef ptr @_ZNKSt7__cxx1112basic_stringIcSt11char_traitsIcESaIcEE5c_strEv(ptr noundef nonnull align 8 dereferenceable(32) %6) #19
  invoke void (ptr, ptr, ...) @_ZNK32pxrInternal_v0_24__pxrReserved__19Tf_DiagnosticHelper15IssueFatalErrorEPKcz(ptr noundef nonnull align 8 dereferenceable(44) %5, ptr noundef nonnull @.str.16, ptr noundef %12)
          to label %13 unwind label %14

13:                                               ; preds = %10
  call void @_ZNSt7__cxx1112basic_stringIcSt11char_traitsIcESaIcEED1Ev(ptr noundef nonnull align 8 dereferenceable(32) %6) #19
  unreachable

common.resume:                                    ; preds = %69, %14
  %common.resume.op = phi { ptr, i32 } [ %15, %14 ], [ %.pn, %69 ]
  resume { ptr, i32 } %common.resume.op

14:                                               ; preds = %10
  %15 = landingpad { ptr, i32 }
          cleanup
  call void @_ZNSt7__cxx1112basic_stringIcSt11char_traitsIcESaIcEED1Ev(ptr noundef nonnull align 8 dereferenceable(32) %6) #19
  br label %common.resume

_ZNK32pxrInternal_v0_24__pxrReserved__9SdfHandleINS_11SdfPrimSpecEEptEv.exit: ; preds = %4
  call void @llvm.lifetime.end.p0(i64 48, ptr nonnull %5)
  call void @llvm.lifetime.end.p0(i64 32, ptr nonnull %6)
  call void @_ZNK32pxrInternal_v0_24__pxrReserved__11SdfPrimSpec16GetReferenceListEv(ptr dead_on_unwind nonnull writable sret(%"class.pxrInternal_v0_24__pxrReserved__::SdfListEditorProxy.105") align 8 %8, ptr noundef nonnull align 8 dereferenceable(8) %3)
  invoke void @_ZNK32pxrInternal_v0_24__pxrReserved__18SdfListEditorProxyINS_22SdfReferenceTypePolicyEE15GetAppliedItemsEv(ptr dead_on_unwind nonnull writable sret(%"class.std::vector.100") align 8 %7, ptr noundef nonnull align 8 dereferenceable(16) %8)
          to label %16 unwind label %65

16:                                               ; preds = %_ZNK32pxrInternal_v0_24__pxrReserved__9SdfHandleINS_11SdfPrimSpecEEptEv.exit
  invoke void @_ZN32pxrInternal_v0_24__pxrReserved__37UsdUtils_ReadOnlyLocalizationDelegate27ProcessReferencesOrPayloadsINS_12SdfReferenceELNS_23UsdUtils_DependencyTypeE0EEESt6vectorINSt7__cxx1112basic_stringIcSt11char_traitsIcESaIcEEESaISA_EERKNS_8TfRefPtrINS_8SdfLayerEEERKS4_IT_SaISI_EE(ptr dead_on_unwind writable sret(%"class.std::vector") align 8 %0, ptr noundef nonnull align 8 dereferenceable(96) %1, ptr noundef nonnull align 8 dereferenceable(8) %2, ptr noundef nonnull align 8 dereferenceable(24) %7)
          to label %17 unwind label %67

17:                                               ; preds = %16
  %18 = load ptr, ptr %7, align 8
  %19 = getelementptr inbounds nuw i8, ptr %7, i64 8
  %20 = load ptr, ptr %19, align 8
  %.not4.i.i.i.i = icmp eq ptr %18, %20
  br i1 %.not4.i.i.i.i, label %_ZSt8_DestroyIPN32pxrInternal_v0_24__pxrReserved__12SdfReferenceES1_EvT_S3_RSaIT0_E.exit.i, label %.lr.ph.i.i.i.i

.lr.ph.i.i.i.i:                                   ; preds = %17, %.lr.ph.i.i.i.i
  %.05.i.i.i.i = phi ptr [ %21, %.lr.ph.i.i.i.i ], [ %18, %17 ]
  call void @_ZN32pxrInternal_v0_24__pxrReserved__12SdfReferenceD2Ev(ptr noundef nonnull align 8 dereferenceable(64) %.05.i.i.i.i) #19
  %21 = getelementptr inbounds nuw i8, ptr %.05.i.i.i.i, i64 64
  %.not.i.i.i.i = icmp eq ptr %21, %20
  br i1 %.not.i.i.i.i, label %_ZSt8_DestroyIPN32pxrInternal_v0_24__pxrReserved__12SdfReferenceES1_EvT_S3_RSaIT0_E.exitthread-pre-split.i, label %.lr.ph.i.i.i.i, !llvm.loop !110

_ZSt8_DestroyIPN32pxrInternal_v0_24__pxrReserved__12SdfReferenceES1_EvT_S3_RSaIT0_E.exitthread-pre-split.i: ; preds = %.lr.ph.i.i.i.i
  %.pr.i = load ptr, ptr %7, align 8
  br label %_ZSt8_DestroyIPN32pxrInternal_v0_24__pxrReserved__12SdfReferenceES1_EvT_S3_RSaIT0_E.exit.i

_ZSt8_DestroyIPN32pxrInternal_v0_24__pxrReserved__12SdfReferenceES1_EvT_S3_RSaIT0_E.exit.i: ; preds = %_ZSt8_DestroyIPN32pxrInternal_v0_24__pxrReserved__12SdfReferenceES1_EvT_S3_RSaIT0_E.exitthread-pre-split.i, %17
  %22 = phi ptr [ %.pr.i, %_ZSt8_DestroyIPN32pxrInternal_v0_24__pxrReserved__12SdfReferenceES1_EvT_S3_RSaIT0_E.exitthread-pre-split.i ], [ %18, %17 ]
  %.not.i.i.i = icmp eq ptr %22, null
  br i1 %.not.i.i.i, label %_ZNSt6vectorIN32pxrInternal_v0_24__pxrReserved__12SdfReferenceESaIS1_EED2Ev.exit, label %23

23:                                               ; preds = %_ZSt8_DestroyIPN32pxrInternal_v0_24__pxrReserved__12SdfReferenceES1_EvT_S3_RSaIT0_E.exit.i
  %24 = getelementptr inbounds nuw i8, ptr %7, i64 16
  %25 = load ptr, ptr %24, align 8
  %26 = ptrtoint ptr %25 to i64
  %27 = ptrtoint ptr %22 to i64
  %28 = sub i64 %26, %27
  call void @_ZdlPvm(ptr noundef nonnull %22, i64 noundef %28) #20
  br label %_ZNSt6vectorIN32pxrInternal_v0_24__pxrReserved__12SdfReferenceESaIS1_EED2Ev.exit

_ZNSt6vectorIN32pxrInternal_v0_24__pxrReserved__12SdfReferenceESaIS1_EED2Ev.exit: ; preds = %_ZSt8_DestroyIPN32pxrInternal_v0_24__pxrReserved__12SdfReferenceES1_EvT_S3_RSaIT0_E.exit.i, %23
  %29 = getelementptr inbounds nuw i8, ptr %8, i64 8
  %30 = load ptr, ptr %29, align 8
  %.not.i.i.i.i6 = icmp eq ptr %30, null
  br i1 %.not.i.i.i.i6, label %_ZN32pxrInternal_v0_24__pxrReserved__18SdfListEditorProxyINS_22SdfReferenceTypePolicyEED2Ev.exit, label %31

31:                                               ; preds = %_ZNSt6vectorIN32pxrInternal_v0_24__pxrReserved__12SdfReferenceESaIS1_EED2Ev.exit
  %32 = getelementptr inbounds nuw i8, ptr %30, i64 8
  %33 = load atomic i64, ptr %32 acquire, align 8
  %34 = icmp eq i64 %33, 4294967297
  %35 = trunc i64 %33 to i32
  br i1 %34, label %36, label %41

36:                                               ; preds = %31
  store i32 0, ptr %32, align 8
  %37 = getelementptr inbounds nuw i8, ptr %30, i64 12
  store i32 0, ptr %37, align 4
  %38 = load ptr, ptr %30, align 8
  %39 = getelementptr inbounds nuw i8, ptr %38, i64 16
  %40 = load ptr, ptr %39, align 8
  call void %40(ptr noundef nonnull align 8 dereferenceable(16) %30) #19
  br label %_ZNSt16_Sp_counted_baseILN9__gnu_cxx12_Lock_policyE2EE24_M_release_last_use_coldEv.exit.sink.split.i.i.i.i.i

41:                                               ; preds = %31
  %42 = load i8, ptr @__libc_single_threaded, align 1
  %.not.i.i.i.i.i = icmp eq i8 %42, 0
  br i1 %.not.i.i.i.i.i, label %45, label %43

43:                                               ; preds = %41
  %44 = add nsw i32 %35, -1
  store i32 %44, ptr %32, align 4
  br label %47

45:                                               ; preds = %41
  %46 = atomicrmw volatile add ptr %32, i32 -1 acq_rel, align 4
  br label %47

47:                                               ; preds = %45, %43
  %.0.i.i.i.i.i = phi i32 [ %35, %43 ], [ %46, %45 ]
  %48 = icmp eq i32 %.0.i.i.i.i.i, 1
  br i1 %48, label %49, label %_ZN32pxrInternal_v0_24__pxrReserved__18SdfListEditorProxyINS_22SdfReferenceTypePolicyEED2Ev.exit

49:                                               ; preds = %47
  %50 = load ptr, ptr %30, align 8
  %51 = getelementptr inbounds nuw i8, ptr %50, i64 16
  %52 = load ptr, ptr %51, align 8
  call void %52(ptr noundef nonnull align 8 dereferenceable(16) %30) #19
  %53 = getelementptr inbounds nuw i8, ptr %30, i64 12
  %54 = load i8, ptr @__libc_single_threaded, align 1
  %.not.i.i.i.i.i.i.i = icmp eq i8 %54, 0
  br i1 %.not.i.i.i.i.i.i.i, label %58, label %55

55:                                               ; preds = %49
  %56 = load i32, ptr %53, align 4
  %57 = add nsw i32 %56, -1
  store i32 %57, ptr %53, align 4
  br label %60

58:                                               ; preds = %49
  %59 = atomicrmw volatile add ptr %53, i32 -1 acq_rel, align 4
  br label %60

60:                                               ; preds = %58, %55
  %.0.i.i.i.i.i.i.i = phi i32 [ %56, %55 ], [ %59, %58 ]
  %61 = icmp eq i32 %.0.i.i.i.i.i.i.i, 1
  br i1 %61, label %_ZNSt16_Sp_counted_baseILN9__gnu_cxx12_Lock_policyE2EE24_M_release_last_use_coldEv.exit.sink.split.i.i.i.i.i, label %_ZN32pxrInternal_v0_24__pxrReserved__18SdfListEditorProxyINS_22SdfReferenceTypePolicyEED2Ev.exit

_ZNSt16_Sp_counted_baseILN9__gnu_cxx12_Lock_policyE2EE24_M_release_last_use_coldEv.exit.sink.split.i.i.i.i.i: ; preds = %60, %36
  %62 = load ptr, ptr %30, align 8
  %63 = getelementptr inbounds nuw i8, ptr %62, i64 24
  %64 = load ptr, ptr %63, align 8
  call void %64(ptr noundef nonnull align 8 dereferenceable(16) %30) #19
  br label %_ZN32pxrInternal_v0_24__pxrReserved__18SdfListEditorProxyINS_22SdfReferenceTypePolicyEED2Ev.exit

_ZN32pxrInternal_v0_24__pxrReserved__18SdfListEditorProxyINS_22SdfReferenceTypePolicyEED2Ev.exit: ; preds = %_ZNSt6vectorIN32pxrInternal_v0_24__pxrReserved__12SdfReferenceESaIS1_EED2Ev.exit, %47, %60, %_ZNSt16_Sp_counted_baseILN9__gnu_cxx12_Lock_policyE2EE24_M_release_last_use_coldEv.exit.sink.split.i.i.i.i.i
  ret void

65:                                               ; preds = %_ZNK32pxrInternal_v0_24__pxrReserved__9SdfHandleINS_11SdfPrimSpecEEptEv.exit
  %66 = landingpad { ptr, i32 }
          cleanup
  br label %69

67:                                               ; preds = %16
  %68 = landingpad { ptr, i32 }
          cleanup
  call void @_ZNSt6vectorIN32pxrInternal_v0_24__pxrReserved__12SdfReferenceESaIS1_EED2Ev(ptr noundef nonnull align 8 dereferenceable(24) %7) #19
  br label %69

69:                                               ; preds = %67, %65
  %.pn = phi { ptr, i32 } [ %68, %67 ], [ %66, %65 ]
  call void @_ZN32pxrInternal_v0_24__pxrReserved__18SdfListEditorProxyINS_22SdfReferenceTypePolicyEED2Ev(ptr noundef nonnull align 8 dereferenceable(16) %8) #19
  br label %common.resume
}